target datalayout = "e-m:e-p270:32:32-p271:32:32-p272:64:64-i64:64-i128:128-f80:128-n8:16:32:64-S128"
target triple = "x86_64-pc-linux-gnu"

%struct.b2TreeNode = type { %struct.b2AABB, i64, %union.anon, i32, %union.anon.0, i16, i16 }
%struct.b2AABB = type { %struct.b2Vec2, %struct.b2Vec2 }
%struct.b2Vec2 = type { float, float }
%union.anon = type { i32 }
%union.anon.0 = type { i32 }
%struct.b2DynamicTree = type { ptr, i32, i32, i32, i32, i32, ptr, ptr, ptr, ptr, i32 }

; Function Attrs: nounwind uwtable
define i32 @b2DynamicTree_CreateProxy(ptr noundef %0, <2 x float> %1, <2 x float> %2, i64 noundef %3, i32 noundef %4) #4 {
  %6 = alloca %struct.b2AABB, align 4
  %7 = alloca ptr, align 8
  %8 = alloca i64, align 8
  %9 = alloca i32, align 4
  %10 = alloca i32, align 4
  %11 = alloca ptr, align 8
  %12 = alloca i8, align 1
  %13 = getelementptr inbounds nuw { <2 x float>, <2 x float> }, ptr %6, i32 0, i32 0
  store <2 x float> %1, ptr %13, align 4
  %14 = getelementptr inbounds nuw { <2 x float>, <2 x float> }, ptr %6, i32 0, i32 1
  store <2 x float> %2, ptr %14, align 4
  store ptr %0, ptr %7, align 8, !tbaa !27
  store i64 %3, ptr %8, align 8, !tbaa !29
  store i32 %4, ptr %9, align 4, !tbaa !16
  call void @llvm.lifetime.start.p0(i64 4, ptr %10) #9
  %15 = load ptr, ptr %7, align 8, !tbaa !27
  %16 = call i32 @b2AllocateNode(ptr noundef %15)
  store i32 %16, ptr %10, align 4, !tbaa !16
  call void @llvm.lifetime.start.p0(i64 8, ptr %11) #9
  %17 = load ptr, ptr %7, align 8, !tbaa !27
  %18 = getelementptr inbounds nuw %struct.b2DynamicTree, ptr %17, i32 0, i32 0
  %19 = load ptr, ptr %18, align 8, !tbaa !15
  %20 = load i32, ptr %10, align 4, !tbaa !16
  %21 = sext i32 %20 to i64
  %22 = getelementptr inbounds %struct.b2TreeNode, ptr %19, i64 %21
  store ptr %22, ptr %11, align 8, !tbaa !31
  %23 = load ptr, ptr %11, align 8, !tbaa !31
  %24 = getelementptr inbounds nuw %struct.b2TreeNode, ptr %23, i32 0, i32 0
  call void @llvm.memcpy.p0.p0.i64(ptr align 8 %24, ptr align 4 %6, i64 16, i1 false), !tbaa.struct !32
  %25 = load i32, ptr %9, align 4, !tbaa !16
  %26 = load ptr, ptr %11, align 8, !tbaa !31
  %27 = getelementptr inbounds nuw %struct.b2TreeNode, ptr %26, i32 0, i32 4
  store i32 %25, ptr %27, align 8, !tbaa !17
  %28 = load i64, ptr %8, align 8, !tbaa !29
  %29 = load ptr, ptr %11, align 8, !tbaa !31
  %30 = getelementptr inbounds nuw %struct.b2TreeNode, ptr %29, i32 0, i32 1
  store i64 %28, ptr %30, align 8, !tbaa !35
  %31 = load ptr, ptr %11, align 8, !tbaa !31
  %32 = getelementptr inbounds nuw %struct.b2TreeNode, ptr %31, i32 0, i32 5
  store i16 0, ptr %32, align 4, !tbaa !40
  %33 = load ptr, ptr %11, align 8, !tbaa !31
  %34 = getelementptr inbounds nuw %struct.b2TreeNode, ptr %33, i32 0, i32 6
  store i16 5, ptr %34, align 2, !tbaa !41
  call void @llvm.lifetime.start.p0(i64 1, ptr %12) #9
  store i8 1, ptr %12, align 1, !tbaa !42
  %35 = load ptr, ptr %7, align 8, !tbaa !27
  %36 = load i32, ptr %10, align 4, !tbaa !16
  %37 = load i8, ptr %12, align 1, !tbaa !42, !range !44, !noundef !45
  %38 = trunc i8 %37 to i1
  call void @b2InsertLeaf(ptr noundef %35, i32 noundef %36, i1 noundef zeroext %38)
  %39 = load ptr, ptr %7, align 8, !tbaa !27
  %40 = getelementptr inbounds nuw %struct.b2DynamicTree, ptr %39, i32 0, i32 5
  %41 = load i32, ptr %40, align 8, !tbaa !21
  %42 = add nsw i32 %41, 1
  store i32 %42, ptr %40, align 8, !tbaa !21
  %43 = load i32, ptr %10, align 4, !tbaa !16
  call void @llvm.lifetime.end.p0(i64 1, ptr %12) #9
  call void @llvm.lifetime.end.p0(i64 8, ptr %11) #9
  call void @llvm.lifetime.end.p0(i64 4, ptr %10) #9
  ret i32 %43
}