; Function Attrs: nounwind uwtable
define noundef i32 @b2DynamicTree_CreateProxy(ptr noundef captures(none) %0, <2 x float> %1, <2 x float> %2, i64 noundef %3, i32 noundef %4) local_unnamed_addr #4 {
  %6 = tail call fastcc i32 @b2AllocateNode(ptr noundef %0)
  %7 = load ptr, ptr %0, align 8, !tbaa !15
  %8 = sext i32 %6 to i64
  %9 = getelementptr inbounds %struct.b2TreeNode, ptr %7, i64 %8
  store <2 x float> %1, ptr %9, align 8
  %.sroa.2.0..sroa_idx = getelementptr inbounds nuw i8, ptr %9, i64 8
  store <2 x float> %2, ptr %.sroa.2.0..sroa_idx, align 8
  %10 = getelementptr inbounds nuw i8, ptr %9, i64 32
  store i32 %4, ptr %10, align 8, !tbaa !16
  %11 = getelementptr inbounds nuw i8, ptr %9, i64 16
  store i64 %3, ptr %11, align 8, !tbaa !26
  %12 = getelementptr inbounds nuw i8, ptr %9, i64 36
  store i16 0, ptr %12, align 4, !tbaa !33
  %13 = getelementptr inbounds nuw i8, ptr %9, i64 38
  store i16 5, ptr %13, align 2, !tbaa !34
  tail call fastcc void @b2InsertLeaf(ptr noundef nonnull %0, i32 noundef %6, i1 noundef zeroext true)
  %14 = getelementptr inbounds nuw i8, ptr %0, i64 24
  %15 = load i32, ptr %14, align 8, !tbaa !18
  %16 = add nsw i32 %15, 1
  store i32 %16, ptr %14, align 8, !tbaa !18
  ret i32 %6
}